; Function Attrs: nofree norecurse nosync nounwind memory(argmem: write) uwtable
define internal void @dc_129_16x16_c(ptr noundef writeonly captures(none) %0, i64 noundef %1, ptr readnone captures(none) %2, ptr readnone captures(none) %3) #4 {
  br label %5

5:                                                ; preds = %4, %5
  %.015 = phi i32 [ 0, %4 ], [ %7, %5 ]
  %.01314 = phi ptr [ %0, %4 ], [ %6, %5 ]
  %6 = getelementptr inbounds i8, ptr %.01314, i64 %1
  %7 = add nuw nsw i32 %.015, 1
  %exitcond.not = icmp eq i32 %7, 16
  tail call void @llvm.memset.p0.i64(ptr noundef nonnull align 4 dereferenceable(16) %.01314, i8 -127, i64 16, i1 false)
  br i1 %exitcond.not, label %8, label %5, !llvm.loop !56

8:                                                ; preds = %5
  ret void
}